; Function Attrs: mustprogress nounwind uwtable
define dso_local noundef zeroext i1 @_ZN5clang7CodeGen8CGCXXABI19requiresArrayCookieEPKNS_10CXXNewExprE(ptr nonnull readnone align 8 captures(none) %0, ptr noundef readonly captures(none) %1) unnamed_addr #0 align 2 {
  %3 = load i32, ptr %1, align 8
  %4 = and i32 %3, 2097152
  %.not = icmp eq i32 %4, 0
  br i1 %.not, label %5, label %17

5:                                                ; preds = %2
  %6 = getelementptr inbounds nuw i8, ptr %1, i64 8
  %.sroa.0.0.copyload.i.i = load i64, ptr %6, align 8
  %7 = and i64 %.sroa.0.0.copyload.i.i, -16
  %8 = inttoptr i64 %7 to ptr
  %9 = load ptr, ptr %8, align 16
  %10 = getelementptr inbounds nuw i8, ptr %9, i64 16
  %11 = load i8, ptr %10, align 16
  %.not.i.i = icmp eq i8 %11, 41
  br i1 %.not.i.i, label %_ZNK5clang10CXXNewExpr16getAllocatedTypeEv.exit, label %12

12:                                               ; preds = %5
  %13 = tail call noundef ptr @_ZNK5clang4Type27getUnqualifiedDesugaredTypeEv(ptr noundef nonnull align 16 dereferenceable(24) %9) #17
  br label %_ZNK5clang10CXXNewExpr16getAllocatedTypeEv.exit

_ZNK5clang10CXXNewExpr16getAllocatedTypeEv.exit:  ; preds = %5, %12
  %.0.i.i = phi ptr [ %13, %12 ], [ %9, %5 ]
  %14 = getelementptr inbounds nuw i8, ptr %.0.i.i, i64 32
  %.sroa.0.0.copyload.i1.i = load i64, ptr %14, align 16
  %15 = tail call noundef i32 @_ZN5clang8QualType20isDestructedTypeImplES0_(i64 %.sroa.0.0.copyload.i1.i) #17
  %16 = icmp ne i32 %15, 0
  br label %17

17:                                               ; preds = %2, %_ZNK5clang10CXXNewExpr16getAllocatedTypeEv.exit
  %.0 = phi i1 [ %16, %_ZNK5clang10CXXNewExpr16getAllocatedTypeEv.exit ], [ true, %2 ]
  ret i1 %.0
}